; Function Attrs: nounwind uwtable
define ptr @SUNMatClone(ptr noundef %0) local_unnamed_addr #5 {
  %2 = getelementptr inbounds nuw i8, ptr %0, i64 8
  %3 = load ptr, ptr %2, align 8, !tbaa !3
  %4 = getelementptr inbounds nuw i8, ptr %3, i64 8
  %5 = load ptr, ptr %4, align 8, !tbaa !14
  %6 = tail call ptr %5(ptr noundef %0) #8
  %7 = getelementptr inbounds nuw i8, ptr %0, i64 16
  %8 = load ptr, ptr %7, align 8, !tbaa !11
  %9 = getelementptr inbounds nuw i8, ptr %6, i64 16
  store ptr %8, ptr %9, align 8, !tbaa !11
  ret ptr %6
}